target datalayout = "e-m:e-p270:32:32-p271:32:32-p272:64:64-i64:64-i128:128-f80:128-n8:16:32:64-S128"
target triple = "x86_64-pc-linux-gnu"

%struct.mbedtls_asn1_buf = type { i32, i64, ptr }

; Function Attrs: nounwind uwtable
define internal i32 @pkcs7_get_signature(ptr noundef %0, ptr noundef %1, ptr noundef %2) #0 {
  %4 = alloca i32, align 4
  %5 = alloca ptr, align 8
  %6 = alloca ptr, align 8
  %7 = alloca ptr, align 8
  %8 = alloca i32, align 4
  %9 = alloca i64, align 8
  %10 = alloca i32, align 4
  store ptr %0, ptr %5, align 8, !tbaa !35
  store ptr %1, ptr %6, align 8, !tbaa !8
  store ptr %2, ptr %7, align 8, !tbaa !68
  call void @llvm.lifetime.start.p0(i64 4, ptr %8) #9
  store i32 -110, ptr %8, align 4, !tbaa !12
  call void @llvm.lifetime.start.p0(i64 8, ptr %9) #9
  store i64 0, ptr %9, align 8, !tbaa !10
  %11 = load ptr, ptr %5, align 8, !tbaa !35
  %12 = load ptr, ptr %6, align 8, !tbaa !8
  %13 = call i32 @mbedtls_asn1_get_tag(ptr noundef %11, ptr noundef %12, ptr noundef %9, i32 noundef 4)
  store i32 %13, ptr %8, align 4, !tbaa !12
  %14 = load i32, ptr %8, align 4, !tbaa !12
  %15 = icmp ne i32 %14, 0
  br i1 %15, label %16, label %18

16:                                               ; preds = %3
  %17 = load i32, ptr %8, align 4, !tbaa !12
  store i32 %17, ptr %4, align 4
  store i32 1, ptr %10, align 4
  br label %33

18:                                               ; preds = %3
  %19 = load ptr, ptr %7, align 8, !tbaa !68
  %20 = getelementptr inbounds nuw %struct.mbedtls_asn1_buf, ptr %19, i32 0, i32 0
  store i32 4, ptr %20, align 8, !tbaa !70
  %21 = load i64, ptr %9, align 8, !tbaa !10
  %22 = load ptr, ptr %7, align 8, !tbaa !68
  %23 = getelementptr inbounds nuw %struct.mbedtls_asn1_buf, ptr %22, i32 0, i32 1
  store i64 %21, ptr %23, align 8, !tbaa !42
  %24 = load ptr, ptr %5, align 8, !tbaa !35
  %25 = load ptr, ptr %24, align 8, !tbaa !8
  %26 = load ptr, ptr %7, align 8, !tbaa !68
  %27 = getelementptr inbounds nuw %struct.mbedtls_asn1_buf, ptr %26, i32 0, i32 2
  store ptr %25, ptr %27, align 8, !tbaa !43
  %28 = load ptr, ptr %5, align 8, !tbaa !35
  %29 = load ptr, ptr %28, align 8, !tbaa !8
  %30 = load i64, ptr %9, align 8, !tbaa !10
  %31 = getelementptr inbounds nuw i8, ptr %29, i64 %30
  %32 = load ptr, ptr %5, align 8, !tbaa !35
  store ptr %31, ptr %32, align 8, !tbaa !8
  store i32 0, ptr %4, align 4
  store i32 1, ptr %10, align 4
  br label %33

33:                                               ; preds = %18, %16
  call void @llvm.lifetime.end.p0(i64 8, ptr %9) #9
  call void @llvm.lifetime.end.p0(i64 4, ptr %8) #9
  %34 = load i32, ptr %4, align 4
  ret i32 %34
}