; Function Attrs: nounwind uwtable
define internal fastcc i32 @pkcs7_get_signature(ptr noundef nonnull %0, ptr noundef %1, ptr noundef nonnull writeonly captures(none) %2) unnamed_addr #2 {
  %4 = alloca i64, align 8
  call void @llvm.lifetime.start.p0(i64 8, ptr nonnull %4) #9
  store i64 0, ptr %4, align 8, !tbaa !3
  %5 = call i32 @mbedtls_asn1_get_tag(ptr noundef nonnull %0, ptr noundef %1, ptr noundef nonnull %4, i32 noundef 4) #9
  %.not = icmp eq i32 %5, 0
  br i1 %.not, label %6, label %12

6:                                                ; preds = %3
  store i32 4, ptr %2, align 8, !tbaa !52
  %7 = load i64, ptr %4, align 8, !tbaa !3
  %8 = getelementptr inbounds nuw i8, ptr %2, i64 8
  store i64 %7, ptr %8, align 8, !tbaa !33
  %9 = load ptr, ptr %0, align 8, !tbaa !7
  %10 = getelementptr inbounds nuw i8, ptr %2, i64 16
  store ptr %9, ptr %10, align 8, !tbaa !34
  %11 = getelementptr inbounds nuw i8, ptr %9, i64 %7
  store ptr %11, ptr %0, align 8, !tbaa !7
  br label %12

12:                                               ; preds = %3, %6
  call void @llvm.lifetime.end.p0(i64 8, ptr nonnull %4) #9
  ret i32 %5
}